target datalayout = "e-m:e-p270:32:32-p271:32:32-p272:64:64-i64:64-i128:128-f80:128-n8:16:32:64-S128"
target triple = "x86_64-pc-linux-gnu"

%struct.lua_TValue = type { %union.Value, [1 x i32], i32 }
%union.Value = type { ptr }
%struct.lua_State = type { i8, i8, i8, i8, i8, i8, i8, ptr, ptr, ptr, ptr, ptr, ptr, ptr, ptr, i32, i32, i16, i16, i32, ptr, ptr, ptr, ptr, ptr }
%struct.global_State = type { %struct.stringtable, ptr, ptr, i8, i8, ptr, ptr, ptr, i64, i64, i32, i32, i32, [40 x ptr], [40 x ptr], ptr, ptr, ptr, [256 x i64], ptr, %struct.UpVal, [11 x ptr], [11 x ptr], [21 x ptr], %struct.lua_TValue, %struct.lua_TValue, i32, ptr, i64, [4 x i64], %struct.lua_Callbacks, %struct.lua_ExecutionCallbacks, [128 x ptr], [128 x ptr], [128 x ptr], %struct.GCStats }
%struct.stringtable = type { ptr, i32, i32 }
%struct.UpVal = type { i8, i8, i8, i8, ptr, %union.anon.3 }
%union.anon.3 = type { %struct.anon.4 }
%struct.anon.4 = type { ptr, ptr, ptr }
%struct.lua_Callbacks = type { ptr, ptr, ptr, ptr, ptr, ptr, ptr, ptr, ptr, ptr }
%struct.lua_ExecutionCallbacks = type { ptr, ptr, ptr, ptr, ptr, ptr, ptr }
%struct.GCStats = type { [32 x i32], i32, i32, i64, i64, i64, double, double, double }
%struct.TString = type { i8, i8, i8, i16, ptr, i32, i32, [1 x i8] }

; Function Attrs: mustprogress nounwind uwtable
define dso_local noundef ptr @_Z24lua_getlightuserdatanameP9lua_Statei(ptr noundef %0, i32 noundef %1) #3 {
  %3 = alloca ptr, align 8
  %4 = alloca i32, align 4
  %5 = alloca ptr, align 8
  store ptr %0, ptr %3, align 8, !tbaa !4
  store i32 %1, ptr %4, align 4, !tbaa !9
  call void @llvm.lifetime.start.p0(i64 8, ptr %5) #11
  %6 = load ptr, ptr %3, align 8, !tbaa !4
  %7 = getelementptr inbounds nuw %struct.lua_State, ptr %6, i32 0, i32 9
  %8 = load ptr, ptr %7, align 8, !tbaa !33
  %9 = getelementptr inbounds nuw %struct.global_State, ptr %8, i32 0, i32 34
  %10 = load i32, ptr %4, align 4, !tbaa !9
  %11 = sext i32 %10 to i64
  %12 = getelementptr inbounds [128 x ptr], ptr %9, i64 0, i64 %11
  %13 = load ptr, ptr %12, align 8, !tbaa !72
  store ptr %13, ptr %5, align 8, !tbaa !72
  %14 = load ptr, ptr %5, align 8, !tbaa !72
  %15 = icmp ne ptr %14, null
  br i1 %15, label %16, label %20

16:                                               ; preds = %2
  %17 = load ptr, ptr %5, align 8, !tbaa !72
  %18 = getelementptr inbounds nuw %struct.TString, ptr %17, i32 0, i32 7
  %19 = getelementptr inbounds [1 x i8], ptr %18, i64 0, i64 0
  br label %21

20:                                               ; preds = %2
  br label %21

21:                                               ; preds = %20, %16
  %22 = phi ptr [ %19, %16 ], [ null, %20 ]
  call void @llvm.lifetime.end.p0(i64 8, ptr %5) #11
  ret ptr %22
}