; Function Attrs: mustprogress nofree norecurse nosync nounwind willreturn memory(read, inaccessiblemem: none) uwtable
define dso_local noundef ptr @_Z24lua_getlightuserdatanameP9lua_Statei(ptr noundef readonly captures(none) %0, i32 noundef %1) local_unnamed_addr #5 {
  %3 = getelementptr inbounds nuw i8, ptr %0, i64 24
  %4 = load ptr, ptr %3, align 8, !tbaa !30
  %5 = getelementptr inbounds nuw i8, ptr %4, i64 5472
  %6 = sext i32 %1 to i64
  %7 = getelementptr inbounds [128 x ptr], ptr %5, i64 0, i64 %6
  %8 = load ptr, ptr %7, align 8, !tbaa !109
  %.not = icmp eq ptr %8, null
  %9 = getelementptr inbounds nuw i8, ptr %8, i64 24
  %10 = select i1 %.not, ptr null, ptr %9
  ret ptr %10
}